target datalayout = "e-m:e-p270:32:32-p271:32:32-p272:64:64-i64:64-i128:128-f80:128-n8:16:32:64-S128"
target triple = "x86_64-pc-linux-gnu"

%"struct.std::_Rb_tree_header" = type { %"struct.std::_Rb_tree_node_base", i64 }
%"struct.std::_Rb_tree_node_base" = type { i32, ptr, ptr, ptr }
%"class.std::map.42" = type { %"class.std::_Rb_tree.43" }
%"class.std::_Rb_tree.43" = type { %"struct.std::_Rb_tree<llm_tensor, std::pair<const llm_tensor, llm_tensor_info>, std::_Select1st<std::pair<const llm_tensor, llm_tensor_info>>, std::less<llm_tensor>>::_Rb_tree_impl" }
%"struct.std::_Rb_tree<llm_tensor, std::pair<const llm_tensor, llm_tensor_info>, std::_Select1st<std::pair<const llm_tensor, llm_tensor_info>>, std::less<llm_tensor>>::_Rb_tree_impl" = type { [8 x i8], %"struct.std::_Rb_tree_header" }
%"struct.std::pair.48" = type { i32, %struct.llm_tensor_info }
%struct.llm_tensor_info = type { i32, i32 }
%"struct.std::less.34" = type { i8 }
%"struct.std::_Rb_tree_const_iterator.79" = type { ptr }
%"struct.std::_Rb_tree_node.63" = type <{ %"struct.std::_Rb_tree_node_base", %"struct.__gnu_cxx::__aligned_membuf.64", [4 x i8] }>
%"struct.__gnu_cxx::__aligned_membuf.64" = type { [12 x i8] }
%"struct.std::_Select1st.80" = type { i8 }

@_ZL16LLM_TENSOR_INFOS = internal global %"class.std::map.42" zeroinitializer, align 8
@.str.364 = private unnamed_addr constant [8 x i8] c"map::at\00", align 1

; Function Attrs: mustprogress nounwind uwtable
define linkonce_odr noundef nonnull align 4 dereferenceable(4) ptr @_ZNKSt10_Select1stISt4pairIK10llm_tensor15llm_tensor_infoEEclERKS4_(ptr noundef nonnull align 1 dereferenceable(1) %0, ptr noundef nonnull align 4 dereferenceable(12) %1) #3 comdat align 2 {
  %3 = alloca ptr, align 8
  %4 = alloca ptr, align 8
  store ptr %0, ptr %3, align 8, !tbaa !329
  store ptr %1, ptr %4, align 8, !tbaa !212
  %5 = load ptr, ptr %4, align 8, !tbaa !212
  %6 = getelementptr inbounds nuw %"struct.std::pair.48", ptr %5, i32 0, i32 0
  ret ptr %6
}

; Function Attrs: mustprogress nounwind uwtable
define linkonce_odr noundef ptr @_ZNK9__gnu_cxx16__aligned_membufISt4pairIK10llm_tensor15llm_tensor_infoEE7_M_addrEv(ptr noundef nonnull align 4 dereferenceable(12) %0) #3 comdat align 2 {
  %2 = alloca ptr, align 8
  store ptr %0, ptr %2, align 8, !tbaa !215
  %3 = load ptr, ptr %2, align 8
  %4 = getelementptr inbounds nuw %"struct.__gnu_cxx::__aligned_membuf.64", ptr %3, i32 0, i32 0
  ret ptr %4
}

; Function Attrs: mustprogress nounwind uwtable
define linkonce_odr noundef ptr @_ZNSt8_Rb_treeI10llm_tensorSt4pairIKS0_15llm_tensor_infoESt10_Select1stIS4_ESt4lessIS0_ESaIS4_EE8_S_rightEPKSt18_Rb_tree_node_base(ptr noundef %0) #3 comdat align 2 {
  %2 = alloca ptr, align 8
  store ptr %0, ptr %2, align 8, !tbaa !141
  %3 = load ptr, ptr %2, align 8, !tbaa !141
  %4 = getelementptr inbounds nuw %"struct.std::_Rb_tree_node_base", ptr %3, i32 0, i32 3
  %5 = load ptr, ptr %4, align 8, !tbaa !142
  ret ptr %5
}

; Function Attrs: mustprogress nounwind uwtable
define linkonce_odr noundef ptr @_ZNSt8_Rb_treeI10llm_tensorSt4pairIKS0_15llm_tensor_infoESt10_Select1stIS4_ESt4lessIS0_ESaIS4_EE7_S_leftEPKSt18_Rb_tree_node_base(ptr noundef %0) #3 comdat align 2 {
  %2 = alloca ptr, align 8
  store ptr %0, ptr %2, align 8, !tbaa !141
  %3 = load ptr, ptr %2, align 8, !tbaa !141
  %4 = getelementptr inbounds nuw %"struct.std::_Rb_tree_node_base", ptr %3, i32 0, i32 2
  %5 = load ptr, ptr %4, align 8, !tbaa !143
  ret ptr %5
}

; Function Attrs: mustprogress uwtable
define linkonce_odr noundef nonnull align 4 dereferenceable(4) ptr @_ZNSt8_Rb_treeI10llm_tensorSt4pairIKS0_15llm_tensor_infoESt10_Select1stIS4_ESt4lessIS0_ESaIS4_EE6_S_keyEPKSt13_Rb_tree_nodeIS4_E(ptr noundef %0) #4 comdat align 2 {
  %2 = alloca ptr, align 8
  %3 = alloca %"struct.std::_Select1st.80", align 1
  store ptr %0, ptr %2, align 8, !tbaa !207
  call void @llvm.lifetime.start.p0(i64 1, ptr %3) #5
  %4 = load ptr, ptr %2, align 8, !tbaa !207
  %5 = call noundef ptr @_ZNKSt13_Rb_tree_nodeISt4pairIK10llm_tensor15llm_tensor_infoEE9_M_valptrEv(ptr noundef nonnull align 8 dereferenceable(44) %4)
  %6 = call noundef nonnull align 4 dereferenceable(4) ptr @_ZNKSt10_Select1stISt4pairIK10llm_tensor15llm_tensor_infoEEclERKS4_(ptr noundef nonnull align 1 dereferenceable(1) %3, ptr noundef nonnull align 4 dereferenceable(12) %5)
  call void @llvm.lifetime.end.p0(i64 1, ptr %3) #5
  ret ptr %6
}

; Function Attrs: mustprogress nounwind uwtable
define linkonce_odr noundef ptr @_ZNK9__gnu_cxx16__aligned_membufISt4pairIK10llm_tensor15llm_tensor_infoEE6_M_ptrEv(ptr noundef nonnull align 4 dereferenceable(12) %0) #3 comdat align 2 {
  %2 = alloca ptr, align 8
  store ptr %0, ptr %2, align 8, !tbaa !215
  %3 = load ptr, ptr %2, align 8
  %4 = call noundef ptr @_ZNK9__gnu_cxx16__aligned_membufISt4pairIK10llm_tensor15llm_tensor_infoEE7_M_addrEv(ptr noundef nonnull align 4 dereferenceable(12) %3) #5
  ret ptr %4
}

; Function Attrs: mustprogress nounwind uwtable
define linkonce_odr void @_ZNSt23_Rb_tree_const_iteratorISt4pairIK10llm_tensor15llm_tensor_infoEEC2EPKSt18_Rb_tree_node_base(ptr noundef nonnull align 8 dereferenceable(8) %0, ptr noundef %1) unnamed_addr #3 comdat align 2 {
  %3 = alloca ptr, align 8
  %4 = alloca ptr, align 8
  store ptr %0, ptr %3, align 8, !tbaa !321
  store ptr %1, ptr %4, align 8, !tbaa !141
  %5 = load ptr, ptr %3, align 8
  %6 = getelementptr inbounds nuw %"struct.std::_Rb_tree_const_iterator.79", ptr %5, i32 0, i32 0
  %7 = load ptr, ptr %4, align 8, !tbaa !141
  store ptr %7, ptr %6, align 8, !tbaa !327
  ret void
}

; Function Attrs: mustprogress uwtable
define linkonce_odr ptr @_ZNKSt8_Rb_treeI10llm_tensorSt4pairIKS0_15llm_tensor_infoESt10_Select1stIS4_ESt4lessIS0_ESaIS4_EE14_M_lower_boundEPKSt13_Rb_tree_nodeIS4_EPKSt18_Rb_tree_node_baseRS2_(ptr noundef nonnull align 8 dereferenceable(48) %0, ptr noundef %1, ptr noundef %2, ptr noundef nonnull align 4 dereferenceable(4) %3) #4 comdat align 2 {
  %5 = alloca %"struct.std::_Rb_tree_const_iterator.79", align 8
  %6 = alloca ptr, align 8
  %7 = alloca ptr, align 8
  %8 = alloca ptr, align 8
  %9 = alloca ptr, align 8
  store ptr %0, ptr %6, align 8, !tbaa !205
  store ptr %1, ptr %7, align 8, !tbaa !207
  store ptr %2, ptr %8, align 8, !tbaa !141
  store ptr %3, ptr %9, align 8, !tbaa !68
  %10 = load ptr, ptr %6, align 8
  br label %11

11:                                               ; preds = %27, %4
  %12 = load ptr, ptr %7, align 8, !tbaa !207
  %13 = icmp ne ptr %12, null
  br i1 %13, label %14, label %28

14:                                               ; preds = %11
  %15 = getelementptr inbounds nuw %"class.std::_Rb_tree.43", ptr %10, i32 0, i32 0
  %16 = load ptr, ptr %7, align 8, !tbaa !207
  %17 = call noundef nonnull align 4 dereferenceable(4) ptr @_ZNSt8_Rb_treeI10llm_tensorSt4pairIKS0_15llm_tensor_infoESt10_Select1stIS4_ESt4lessIS0_ESaIS4_EE6_S_keyEPKSt13_Rb_tree_nodeIS4_E(ptr noundef %16)
  %18 = load ptr, ptr %9, align 8, !tbaa !68
  %19 = call noundef zeroext i1 @_ZNKSt4lessI10llm_tensorEclERKS0_S3_(ptr noundef nonnull align 1 dereferenceable(1) %15, ptr noundef nonnull align 4 dereferenceable(4) %17, ptr noundef nonnull align 4 dereferenceable(4) %18)
  br i1 %19, label %24, label %20

20:                                               ; preds = %14
  %21 = load ptr, ptr %7, align 8, !tbaa !207
  store ptr %21, ptr %8, align 8, !tbaa !141
  %22 = load ptr, ptr %7, align 8, !tbaa !207
  %23 = call noundef ptr @_ZNSt8_Rb_treeI10llm_tensorSt4pairIKS0_15llm_tensor_infoESt10_Select1stIS4_ESt4lessIS0_ESaIS4_EE7_S_leftEPKSt18_Rb_tree_node_base(ptr noundef %22) #5
  store ptr %23, ptr %7, align 8, !tbaa !207
  br label %27

24:                                               ; preds = %14
  %25 = load ptr, ptr %7, align 8, !tbaa !207
  %26 = call noundef ptr @_ZNSt8_Rb_treeI10llm_tensorSt4pairIKS0_15llm_tensor_infoESt10_Select1stIS4_ESt4lessIS0_ESaIS4_EE8_S_rightEPKSt18_Rb_tree_node_base(ptr noundef %25) #5
  store ptr %26, ptr %7, align 8, !tbaa !207
  br label %27

27:                                               ; preds = %24, %20
  br label %11, !llvm.loop !349

28:                                               ; preds = %11
  %29 = load ptr, ptr %8, align 8, !tbaa !141
  call void @_ZNSt23_Rb_tree_const_iteratorISt4pairIK10llm_tensor15llm_tensor_infoEEC2EPKSt18_Rb_tree_node_base(ptr noundef nonnull align 8 dereferenceable(8) %5, ptr noundef %29) #5
  %30 = getelementptr inbounds nuw %"struct.std::_Rb_tree_const_iterator.79", ptr %5, i32 0, i32 0
  %31 = load ptr, ptr %30, align 8
  ret ptr %31
}

; Function Attrs: mustprogress nounwind uwtable
define linkonce_odr noundef ptr @_ZNKSt8_Rb_treeI10llm_tensorSt4pairIKS0_15llm_tensor_infoESt10_Select1stIS4_ESt4lessIS0_ESaIS4_EE6_M_endEv(ptr noundef nonnull align 8 dereferenceable(48) %0) #3 comdat align 2 {
  %2 = alloca ptr, align 8
  store ptr %0, ptr %2, align 8, !tbaa !205
  %3 = load ptr, ptr %2, align 8
  %4 = getelementptr inbounds nuw %"class.std::_Rb_tree.43", ptr %3, i32 0, i32 0
  %5 = getelementptr inbounds i8, ptr %4, i64 8
  %6 = getelementptr inbounds nuw %"struct.std::_Rb_tree_header", ptr %5, i32 0, i32 0
  ret ptr %6
}

; Function Attrs: mustprogress nounwind uwtable
define linkonce_odr noundef ptr @_ZNKSt8_Rb_treeI10llm_tensorSt4pairIKS0_15llm_tensor_infoESt10_Select1stIS4_ESt4lessIS0_ESaIS4_EE8_M_beginEv(ptr noundef nonnull align 8 dereferenceable(48) %0) #3 comdat align 2 {
  %2 = alloca ptr, align 8
  store ptr %0, ptr %2, align 8, !tbaa !205
  %3 = load ptr, ptr %2, align 8
  %4 = getelementptr inbounds nuw %"class.std::_Rb_tree.43", ptr %3, i32 0, i32 0
  %5 = getelementptr inbounds i8, ptr %4, i64 8
  %6 = getelementptr inbounds nuw %"struct.std::_Rb_tree_header", ptr %5, i32 0, i32 0
  %7 = getelementptr inbounds nuw %"struct.std::_Rb_tree_node_base", ptr %6, i32 0, i32 1
  %8 = load ptr, ptr %7, align 8, !tbaa !151
  ret ptr %8
}

; Function Attrs: mustprogress nounwind uwtable
define linkonce_odr noundef ptr @_ZNKSt13_Rb_tree_nodeISt4pairIK10llm_tensor15llm_tensor_infoEE9_M_valptrEv(ptr noundef nonnull align 8 dereferenceable(44) %0) #3 comdat align 2 {
  %2 = alloca ptr, align 8
  store ptr %0, ptr %2, align 8, !tbaa !207
  %3 = load ptr, ptr %2, align 8
  %4 = getelementptr inbounds nuw %"struct.std::_Rb_tree_node.63", ptr %3, i32 0, i32 1
  %5 = call noundef ptr @_ZNK9__gnu_cxx16__aligned_membufISt4pairIK10llm_tensor15llm_tensor_infoEE6_M_ptrEv(ptr noundef nonnull align 4 dereferenceable(12) %4) #5
  ret ptr %5
}

; Function Attrs: mustprogress nounwind uwtable
define linkonce_odr void @_ZNKSt8_Rb_treeI10llm_tensorSt4pairIKS0_15llm_tensor_infoESt10_Select1stIS4_ESt4lessIS0_ESaIS4_EE8key_compEv(ptr noundef nonnull align 8 dereferenceable(48) %0) #3 comdat align 2 {
  %2 = alloca ptr, align 8
  store ptr %0, ptr %2, align 8, !tbaa !205
  ret void
}

; Function Attrs: mustprogress nounwind uwtable
define linkonce_odr ptr @_ZNKSt8_Rb_treeI10llm_tensorSt4pairIKS0_15llm_tensor_infoESt10_Select1stIS4_ESt4lessIS0_ESaIS4_EE3endEv(ptr noundef nonnull align 8 dereferenceable(48) %0) #3 comdat align 2 {
  %2 = alloca %"struct.std::_Rb_tree_const_iterator.79", align 8
  %3 = alloca ptr, align 8
  store ptr %0, ptr %3, align 8, !tbaa !205
  %4 = load ptr, ptr %3, align 8
  %5 = getelementptr inbounds nuw %"class.std::_Rb_tree.43", ptr %4, i32 0, i32 0
  %6 = getelementptr inbounds i8, ptr %5, i64 8
  %7 = getelementptr inbounds nuw %"struct.std::_Rb_tree_header", ptr %6, i32 0, i32 0
  call void @_ZNSt23_Rb_tree_const_iteratorISt4pairIK10llm_tensor15llm_tensor_infoEEC2EPKSt18_Rb_tree_node_base(ptr noundef nonnull align 8 dereferenceable(8) %2, ptr noundef %7) #5
  %8 = getelementptr inbounds nuw %"struct.std::_Rb_tree_const_iterator.79", ptr %2, i32 0, i32 0
  %9 = load ptr, ptr %8, align 8
  ret ptr %9
}

; Function Attrs: mustprogress uwtable
define linkonce_odr ptr @_ZNKSt8_Rb_treeI10llm_tensorSt4pairIKS0_15llm_tensor_infoESt10_Select1stIS4_ESt4lessIS0_ESaIS4_EE11lower_boundERS2_(ptr noundef nonnull align 8 dereferenceable(48) %0, ptr noundef nonnull align 4 dereferenceable(4) %1) #4 comdat align 2 {
  %3 = alloca %"struct.std::_Rb_tree_const_iterator.79", align 8
  %4 = alloca ptr, align 8
  %5 = alloca ptr, align 8
  store ptr %0, ptr %4, align 8, !tbaa !205
  store ptr %1, ptr %5, align 8, !tbaa !68
  %6 = load ptr, ptr %4, align 8
  %7 = call noundef ptr @_ZNKSt8_Rb_treeI10llm_tensorSt4pairIKS0_15llm_tensor_infoESt10_Select1stIS4_ESt4lessIS0_ESaIS4_EE8_M_beginEv(ptr noundef nonnull align 8 dereferenceable(48) %6) #5
  %8 = call noundef ptr @_ZNKSt8_Rb_treeI10llm_tensorSt4pairIKS0_15llm_tensor_infoESt10_Select1stIS4_ESt4lessIS0_ESaIS4_EE6_M_endEv(ptr noundef nonnull align 8 dereferenceable(48) %6) #5
  %9 = load ptr, ptr %5, align 8, !tbaa !68
  %10 = call ptr @_ZNKSt8_Rb_treeI10llm_tensorSt4pairIKS0_15llm_tensor_infoESt10_Select1stIS4_ESt4lessIS0_ESaIS4_EE14_M_lower_boundEPKSt13_Rb_tree_nodeIS4_EPKSt18_Rb_tree_node_baseRS2_(ptr noundef nonnull align 8 dereferenceable(48) %6, ptr noundef %7, ptr noundef %8, ptr noundef nonnull align 4 dereferenceable(4) %9)
  %11 = getelementptr inbounds nuw %"struct.std::_Rb_tree_const_iterator.79", ptr %3, i32 0, i32 0
  store ptr %10, ptr %11, align 8
  %12 = getelementptr inbounds nuw %"struct.std::_Rb_tree_const_iterator.79", ptr %3, i32 0, i32 0
  %13 = load ptr, ptr %12, align 8
  ret ptr %13
}

; Function Attrs: mustprogress nounwind uwtable
define linkonce_odr noundef zeroext i1 @_ZNKSt4lessI10llm_tensorEclERKS0_S3_(ptr noundef nonnull align 1 dereferenceable(1) %0, ptr noundef nonnull align 4 dereferenceable(4) %1, ptr noundef nonnull align 4 dereferenceable(4) %2) #3 comdat align 2 {
  %4 = alloca ptr, align 8
  %5 = alloca ptr, align 8
  %6 = alloca ptr, align 8
  store ptr %0, ptr %4, align 8, !tbaa !65
  store ptr %1, ptr %5, align 8, !tbaa !68
  store ptr %2, ptr %6, align 8, !tbaa !68
  %7 = load ptr, ptr %5, align 8, !tbaa !68
  %8 = load i32, ptr %7, align 4, !tbaa !45
  %9 = load ptr, ptr %6, align 8, !tbaa !68
  %10 = load i32, ptr %9, align 4, !tbaa !45
  %11 = icmp slt i32 %8, %10
  ret i1 %11
}

; Function Attrs: mustprogress nounwind uwtable
define linkonce_odr noundef nonnull align 4 dereferenceable(12) ptr @_ZNKSt23_Rb_tree_const_iteratorISt4pairIK10llm_tensor15llm_tensor_infoEEdeEv(ptr noundef nonnull align 8 dereferenceable(8) %0) #3 comdat align 2 {
  %2 = alloca ptr, align 8
  store ptr %0, ptr %2, align 8, !tbaa !321
  %3 = load ptr, ptr %2, align 8
  %4 = getelementptr inbounds nuw %"struct.std::_Rb_tree_const_iterator.79", ptr %3, i32 0, i32 0
  %5 = load ptr, ptr %4, align 8, !tbaa !327
  %6 = call noundef ptr @_ZNKSt13_Rb_tree_nodeISt4pairIK10llm_tensor15llm_tensor_infoEE9_M_valptrEv(ptr noundef nonnull align 8 dereferenceable(44) %5)
  ret ptr %6
}

; Function Attrs: mustprogress uwtable
define linkonce_odr void @_ZNKSt3mapI10llm_tensor15llm_tensor_infoSt4lessIS0_ESaISt4pairIKS0_S1_EEE8key_compEv(ptr noundef nonnull align 8 dereferenceable(48) %0) #4 comdat align 2 {
  %2 = alloca ptr, align 8
  store ptr %0, ptr %2, align 8, !tbaa !101
  %3 = load ptr, ptr %2, align 8
  %4 = getelementptr inbounds nuw %"class.std::map.42", ptr %3, i32 0, i32 0
  call void @_ZNKSt8_Rb_treeI10llm_tensorSt4pairIKS0_15llm_tensor_infoESt10_Select1stIS4_ESt4lessIS0_ESaIS4_EE8key_compEv(ptr noundef nonnull align 8 dereferenceable(48) %4)
  ret void
}

; Function Attrs: mustprogress nounwind uwtable
define linkonce_odr noundef zeroext i1 @_ZSteqRKSt23_Rb_tree_const_iteratorISt4pairIK10llm_tensor15llm_tensor_infoEES7_(ptr noundef nonnull align 8 dereferenceable(8) %0, ptr noundef nonnull align 8 dereferenceable(8) %1) #3 comdat {
  %3 = alloca ptr, align 8
  %4 = alloca ptr, align 8
  store ptr %0, ptr %3, align 8, !tbaa !321
  store ptr %1, ptr %4, align 8, !tbaa !321
  %5 = load ptr, ptr %3, align 8, !tbaa !321
  %6 = getelementptr inbounds nuw %"struct.std::_Rb_tree_const_iterator.79", ptr %5, i32 0, i32 0
  %7 = load ptr, ptr %6, align 8, !tbaa !327
  %8 = load ptr, ptr %4, align 8, !tbaa !321
  %9 = getelementptr inbounds nuw %"struct.std::_Rb_tree_const_iterator.79", ptr %8, i32 0, i32 0
  %10 = load ptr, ptr %9, align 8, !tbaa !327
  %11 = icmp eq ptr %7, %10
  ret i1 %11
}

; Function Attrs: mustprogress nounwind uwtable
define linkonce_odr ptr @_ZNKSt3mapI10llm_tensor15llm_tensor_infoSt4lessIS0_ESaISt4pairIKS0_S1_EEE3endEv(ptr noundef nonnull align 8 dereferenceable(48) %0) #3 comdat align 2 {
  %2 = alloca %"struct.std::_Rb_tree_const_iterator.79", align 8
  %3 = alloca ptr, align 8
  store ptr %0, ptr %3, align 8, !tbaa !101
  %4 = load ptr, ptr %3, align 8
  %5 = getelementptr inbounds nuw %"class.std::map.42", ptr %4, i32 0, i32 0
  %6 = call ptr @_ZNKSt8_Rb_treeI10llm_tensorSt4pairIKS0_15llm_tensor_infoESt10_Select1stIS4_ESt4lessIS0_ESaIS4_EE3endEv(ptr noundef nonnull align 8 dereferenceable(48) %5) #5
  %7 = getelementptr inbounds nuw %"struct.std::_Rb_tree_const_iterator.79", ptr %2, i32 0, i32 0
  store ptr %6, ptr %7, align 8
  %8 = getelementptr inbounds nuw %"struct.std::_Rb_tree_const_iterator.79", ptr %2, i32 0, i32 0
  %9 = load ptr, ptr %8, align 8
  ret ptr %9
}

; Function Attrs: mustprogress uwtable
define linkonce_odr ptr @_ZNKSt3mapI10llm_tensor15llm_tensor_infoSt4lessIS0_ESaISt4pairIKS0_S1_EEE11lower_boundERS5_(ptr noundef nonnull align 8 dereferenceable(48) %0, ptr noundef nonnull align 4 dereferenceable(4) %1) #4 comdat align 2 {
  %3 = alloca %"struct.std::_Rb_tree_const_iterator.79", align 8
  %4 = alloca ptr, align 8
  %5 = alloca ptr, align 8
  store ptr %0, ptr %4, align 8, !tbaa !101
  store ptr %1, ptr %5, align 8, !tbaa !68
  %6 = load ptr, ptr %4, align 8
  %7 = getelementptr inbounds nuw %"class.std::map.42", ptr %6, i32 0, i32 0
  %8 = load ptr, ptr %5, align 8, !tbaa !68
  %9 = call ptr @_ZNKSt8_Rb_treeI10llm_tensorSt4pairIKS0_15llm_tensor_infoESt10_Select1stIS4_ESt4lessIS0_ESaIS4_EE11lower_boundERS2_(ptr noundef nonnull align 8 dereferenceable(48) %7, ptr noundef nonnull align 4 dereferenceable(4) %8)
  %10 = getelementptr inbounds nuw %"struct.std::_Rb_tree_const_iterator.79", ptr %3, i32 0, i32 0
  store ptr %9, ptr %10, align 8
  %11 = getelementptr inbounds nuw %"struct.std::_Rb_tree_const_iterator.79", ptr %3, i32 0, i32 0
  %12 = load ptr, ptr %11, align 8
  ret ptr %12
}

; Function Attrs: mustprogress uwtable
define linkonce_odr noundef nonnull align 4 dereferenceable(8) ptr @_ZNKSt3mapI10llm_tensor15llm_tensor_infoSt4lessIS0_ESaISt4pairIKS0_S1_EEE2atERS5_(ptr noundef nonnull align 8 dereferenceable(48) %0, ptr noundef nonnull align 4 dereferenceable(4) %1) #4 comdat align 2 {
  %3 = alloca ptr, align 8
  %4 = alloca ptr, align 8
  %5 = alloca %"struct.std::_Rb_tree_const_iterator.79", align 8
  %6 = alloca %"struct.std::_Rb_tree_const_iterator.79", align 8
  %7 = alloca %"struct.std::less.34", align 1
  store ptr %0, ptr %3, align 8, !tbaa !101
  store ptr %1, ptr %4, align 8, !tbaa !68
  %8 = load ptr, ptr %3, align 8
  call void @llvm.lifetime.start.p0(i64 8, ptr %5) #5
  %9 = load ptr, ptr %4, align 8, !tbaa !68
  %10 = call ptr @_ZNKSt3mapI10llm_tensor15llm_tensor_infoSt4lessIS0_ESaISt4pairIKS0_S1_EEE11lower_boundERS5_(ptr noundef nonnull align 8 dereferenceable(48) %8, ptr noundef nonnull align 4 dereferenceable(4) %9)
  %11 = getelementptr inbounds nuw %"struct.std::_Rb_tree_const_iterator.79", ptr %5, i32 0, i32 0
  store ptr %10, ptr %11, align 8
  call void @llvm.lifetime.start.p0(i64 8, ptr %6) #5
  %12 = call ptr @_ZNKSt3mapI10llm_tensor15llm_tensor_infoSt4lessIS0_ESaISt4pairIKS0_S1_EEE3endEv(ptr noundef nonnull align 8 dereferenceable(48) %8) #5
  %13 = getelementptr inbounds nuw %"struct.std::_Rb_tree_const_iterator.79", ptr %6, i32 0, i32 0
  store ptr %12, ptr %13, align 8
  %14 = call noundef zeroext i1 @_ZSteqRKSt23_Rb_tree_const_iteratorISt4pairIK10llm_tensor15llm_tensor_infoEES7_(ptr noundef nonnull align 8 dereferenceable(8) %5, ptr noundef nonnull align 8 dereferenceable(8) %6) #5
  call void @llvm.lifetime.start.p0(i64 1, ptr %7) #5
  br i1 %14, label %20, label %15

15:                                               ; preds = %2
  call void @_ZNKSt3mapI10llm_tensor15llm_tensor_infoSt4lessIS0_ESaISt4pairIKS0_S1_EEE8key_compEv(ptr noundef nonnull align 8 dereferenceable(48) %8)
  %16 = load ptr, ptr %4, align 8, !tbaa !68
  %17 = call noundef nonnull align 4 dereferenceable(12) ptr @_ZNKSt23_Rb_tree_const_iteratorISt4pairIK10llm_tensor15llm_tensor_infoEEdeEv(ptr noundef nonnull align 8 dereferenceable(8) %5) #5
  %18 = getelementptr inbounds nuw %"struct.std::pair.48", ptr %17, i32 0, i32 0
  %19 = call noundef zeroext i1 @_ZNKSt4lessI10llm_tensorEclERKS0_S3_(ptr noundef nonnull align 1 dereferenceable(1) %7, ptr noundef nonnull align 4 dereferenceable(4) %16, ptr noundef nonnull align 4 dereferenceable(4) %18)
  br label %20

20:                                               ; preds = %15, %2
  %21 = phi i1 [ true, %2 ], [ %19, %15 ]
  call void @llvm.lifetime.end.p0(i64 1, ptr %7) #5
  call void @llvm.lifetime.end.p0(i64 8, ptr %6) #5
  br i1 %21, label %22, label %23

22:                                               ; preds = %20
  call void @_ZSt20__throw_out_of_rangePKc(ptr noundef @.str.364) #17
  unreachable

23:                                               ; preds = %20
  %24 = call noundef nonnull align 4 dereferenceable(12) ptr @_ZNKSt23_Rb_tree_const_iteratorISt4pairIK10llm_tensor15llm_tensor_infoEEdeEv(ptr noundef nonnull align 8 dereferenceable(8) %5) #5
  %25 = getelementptr inbounds nuw %"struct.std::pair.48", ptr %24, i32 0, i32 1
  call void @llvm.lifetime.end.p0(i64 8, ptr %5) #5
  ret ptr %25
}

; Function Attrs: mustprogress uwtable
define noundef nonnull align 4 dereferenceable(8) ptr @_Z19llm_tensor_info_for10llm_tensor(i32 noundef %0) #4 {
  %2 = alloca i32, align 4
  store i32 %0, ptr %2, align 4, !tbaa !45
  %3 = call noundef nonnull align 4 dereferenceable(8) ptr @_ZNKSt3mapI10llm_tensor15llm_tensor_infoSt4lessIS0_ESaISt4pairIKS0_S1_EEE2atERS5_(ptr noundef nonnull align 8 dereferenceable(48) @_ZL16LLM_TENSOR_INFOS, ptr noundef nonnull align 4 dereferenceable(4) %2)
  ret ptr %3
}