; Function Attrs: mustprogress uwtable
define noundef nonnull align 4 dereferenceable(8) ptr @_Z19llm_tensor_info_for10llm_tensor(i32 noundef %0) local_unnamed_addr #2 {
  %2 = load ptr, ptr getelementptr inbounds nuw (i8, ptr @_ZL16LLM_TENSOR_INFOS, i64 16), align 8, !tbaa !12
  %.not10.i.i.i.i = icmp eq ptr %2, null
  br i1 %.not10.i.i.i.i, label %.critedge.i, label %.lr.ph.i.i.i.i

.lr.ph.i.i.i.i:                                   ; preds = %1, %.lr.ph.i.i.i.i
  %.012.i.i.i.i = phi ptr [ %.1.i.i.i.i, %.lr.ph.i.i.i.i ], [ %2, %1 ]
  %.0811.i.i.i.i = phi ptr [ %.19.i.i.i.i, %.lr.ph.i.i.i.i ], [ getelementptr inbounds nuw (i8, ptr @_ZL16LLM_TENSOR_INFOS, i64 8), %1 ]
  %3 = getelementptr inbounds nuw i8, ptr %.012.i.i.i.i, i64 32
  %4 = load i32, ptr %3, align 4, !tbaa !60
  %5 = icmp slt i32 %4, %0
  %.19.i.i.i.i = select i1 %5, ptr %.0811.i.i.i.i, ptr %.012.i.i.i.i
  %.1.in.v.i.i.i.i = select i1 %5, i64 24, i64 16
  %.1.in.i.i.i.i = getelementptr inbounds nuw i8, ptr %.012.i.i.i.i, i64 %.1.in.v.i.i.i.i
  %.1.i.i.i.i = load ptr, ptr %.1.in.i.i.i.i, align 8, !tbaa !16
  %.not.i.i.i.i = icmp eq ptr %.1.i.i.i.i, null
  br i1 %.not.i.i.i.i, label %_ZNKSt3mapI10llm_tensor15llm_tensor_infoSt4lessIS0_ESaISt4pairIKS0_S1_EEE11lower_boundERS5_.exit.i, label %.lr.ph.i.i.i.i, !llvm.loop !87

_ZNKSt3mapI10llm_tensor15llm_tensor_infoSt4lessIS0_ESaISt4pairIKS0_S1_EEE11lower_boundERS5_.exit.i: ; preds = %.lr.ph.i.i.i.i
  %6 = icmp eq ptr %.19.i.i.i.i, getelementptr inbounds nuw (i8, ptr @_ZL16LLM_TENSOR_INFOS, i64 8)
  br i1 %6, label %.critedge.i, label %7

7:                                                ; preds = %_ZNKSt3mapI10llm_tensor15llm_tensor_infoSt4lessIS0_ESaISt4pairIKS0_S1_EEE11lower_boundERS5_.exit.i
  %8 = getelementptr inbounds nuw i8, ptr %.19.i.i.i.i, i64 32
  %9 = load i32, ptr %8, align 4, !tbaa !60
  %10 = icmp slt i32 %0, %9
  br i1 %10, label %.critedge.i, label %_ZNKSt3mapI10llm_tensor15llm_tensor_infoSt4lessIS0_ESaISt4pairIKS0_S1_EEE2atERS5_.exit

.critedge.i:                                      ; preds = %7, %_ZNKSt3mapI10llm_tensor15llm_tensor_infoSt4lessIS0_ESaISt4pairIKS0_S1_EEE11lower_boundERS5_.exit.i, %1
  tail call void @_ZSt20__throw_out_of_rangePKc(ptr noundef nonnull @.str.364) #24
  unreachable

_ZNKSt3mapI10llm_tensor15llm_tensor_infoSt4lessIS0_ESaISt4pairIKS0_S1_EEE2atERS5_.exit: ; preds = %7
  %11 = getelementptr inbounds nuw i8, ptr %.19.i.i.i.i, i64 36
  ret ptr %11
}